target datalayout = "e-m:e-p270:32:32-p271:32:32-p272:64:64-i64:64-i128:128-f80:128-n8:16:32:64-S128"
target triple = "x86_64-pc-linux-gnu"

%struct.evp_pkey_st = type { i32, i32, ptr, ptr, ptr, %union.legacy_pkey_st, %union.legacy_pkey_st, %struct.CRYPTO_REF_COUNT, ptr, ptr, i32, i8, %struct.crypto_ex_data_st, ptr, ptr, i64, ptr, i64, %struct.anon }
%union.legacy_pkey_st = type { ptr }
%struct.CRYPTO_REF_COUNT = type { i32 }
%struct.crypto_ex_data_st = type { ptr, ptr }
%struct.anon = type { i32, i32, i32 }
%struct.evp_pkey_asn1_method_st = type { i32, i32, i64, ptr, ptr, ptr, ptr, ptr, ptr, ptr, ptr, ptr, ptr, ptr, ptr, ptr, ptr, ptr, ptr, ptr, ptr, ptr, ptr, ptr, ptr, ptr, ptr, ptr, ptr, ptr, ptr, ptr, ptr, ptr, ptr, ptr, ptr, ptr, ptr, ptr, ptr }

@.str = private unnamed_addr constant [32 x i8] c"../openssl/crypto/asn1/d2i_pr.c\00", align 1
@__func__.ossl_d2i_PrivateKey_legacy = private unnamed_addr constant [27 x i8] c"ossl_d2i_PrivateKey_legacy\00", align 1

; Function Attrs: nounwind uwtable
define ptr @ossl_d2i_PrivateKey_legacy(i32 noundef %0, ptr noundef %1, ptr noundef %2, i64 noundef %3, ptr noundef %4, ptr noundef %5) #0 {
  %7 = alloca ptr, align 8
  %8 = alloca i32, align 4
  %9 = alloca ptr, align 8
  %10 = alloca ptr, align 8
  %11 = alloca i64, align 8
  %12 = alloca ptr, align 8
  %13 = alloca ptr, align 8
  %14 = alloca ptr, align 8
  %15 = alloca ptr, align 8
  %16 = alloca i32, align 4
  %17 = alloca ptr, align 8
  %18 = alloca ptr, align 8
  store i32 %0, ptr %8, align 4, !tbaa !3
  store ptr %1, ptr %9, align 8, !tbaa !7
  store ptr %2, ptr %10, align 8, !tbaa !10
  store i64 %3, ptr %11, align 8, !tbaa !12
  store ptr %4, ptr %12, align 8, !tbaa !14
  store ptr %5, ptr %13, align 8, !tbaa !16
  call void @llvm.lifetime.start.p0(i64 8, ptr %14) #4
  call void @llvm.lifetime.start.p0(i64 8, ptr %15) #4
  %19 = load ptr, ptr %10, align 8, !tbaa !10
  %20 = load ptr, ptr %19, align 8, !tbaa !16
  store ptr %20, ptr %15, align 8, !tbaa !16
  %21 = load ptr, ptr %9, align 8, !tbaa !7
  %22 = icmp eq ptr %21, null
  br i1 %22, label %27, label %23

23:                                               ; preds = %6
  %24 = load ptr, ptr %9, align 8, !tbaa !7
  %25 = load ptr, ptr %24, align 8, !tbaa !18
  %26 = icmp eq ptr %25, null
  br i1 %26, label %27, label %32

27:                                               ; preds = %23, %6
  %28 = call ptr @EVP_PKEY_new()
  store ptr %28, ptr %14, align 8, !tbaa !18
  %29 = icmp eq ptr %28, null
  br i1 %29, label %30, label %31

30:                                               ; preds = %27
  call void @ERR_new()
  call void @ERR_set_debug(ptr noundef @.str, i32 noundef 110, ptr noundef @__func__.ossl_d2i_PrivateKey_legacy)
  call void (i32, i32, ptr, ...) @ERR_set_error(i32 noundef 13, i32 noundef 524294, ptr noundef null)
  store ptr null, ptr %7, align 8
  store i32 1, ptr %16, align 4
  br label %137

31:                                               ; preds = %27
  br label %41

32:                                               ; preds = %23
  %33 = load ptr, ptr %9, align 8, !tbaa !7
  %34 = load ptr, ptr %33, align 8, !tbaa !18
  store ptr %34, ptr %14, align 8, !tbaa !18
  %35 = load ptr, ptr %14, align 8, !tbaa !18
  %36 = getelementptr inbounds nuw %struct.evp_pkey_st, ptr %35, i32 0, i32 3
  %37 = load ptr, ptr %36, align 8, !tbaa !20
  %38 = call i32 @ENGINE_finish(ptr noundef %37)
  %39 = load ptr, ptr %14, align 8, !tbaa !18
  %40 = getelementptr inbounds nuw %struct.evp_pkey_st, ptr %39, i32 0, i32 3
  store ptr null, ptr %40, align 8, !tbaa !20
  br label %41

41:                                               ; preds = %32, %31
  %42 = load ptr, ptr %14, align 8, !tbaa !18
  %43 = load i32, ptr %8, align 4, !tbaa !3
  %44 = call i32 @EVP_PKEY_set_type(ptr noundef %42, i32 noundef %43)
  %45 = icmp ne i32 %44, 0
  br i1 %45, label %47, label %46

46:                                               ; preds = %41
  call void @ERR_new()
  call void @ERR_set_debug(ptr noundef @.str, i32 noundef 122, ptr noundef @__func__.ossl_d2i_PrivateKey_legacy)
  call void (i32, i32, ptr, ...) @ERR_set_error(i32 noundef 13, i32 noundef 163, ptr noundef null)
  br label %126

47:                                               ; preds = %41
  %48 = call i32 @ERR_set_mark()
  %49 = load ptr, ptr %14, align 8, !tbaa !18
  %50 = getelementptr inbounds nuw %struct.evp_pkey_st, ptr %49, i32 0, i32 2
  %51 = load ptr, ptr %50, align 8, !tbaa !31
  %52 = getelementptr inbounds nuw %struct.evp_pkey_asn1_method_st, ptr %51, i32 0, i32 24
  %53 = load ptr, ptr %52, align 8, !tbaa !32
  %54 = icmp ne ptr %53, null
  br i1 %54, label %55, label %66

55:                                               ; preds = %47
  %56 = load ptr, ptr %14, align 8, !tbaa !18
  %57 = getelementptr inbounds nuw %struct.evp_pkey_st, ptr %56, i32 0, i32 2
  %58 = load ptr, ptr %57, align 8, !tbaa !31
  %59 = getelementptr inbounds nuw %struct.evp_pkey_asn1_method_st, ptr %58, i32 0, i32 24
  %60 = load ptr, ptr %59, align 8, !tbaa !32
  %61 = load ptr, ptr %14, align 8, !tbaa !18
  %62 = load i64, ptr %11, align 8, !tbaa !12
  %63 = trunc i64 %62 to i32
  %64 = call i32 %60(ptr noundef %61, ptr noundef %15, i32 noundef %63)
  %65 = icmp ne i32 %64, 0
  br i1 %65, label %114, label %66

66:                                               ; preds = %55, %47
  %67 = load ptr, ptr %14, align 8, !tbaa !18
  %68 = getelementptr inbounds nuw %struct.evp_pkey_st, ptr %67, i32 0, i32 2
  %69 = load ptr, ptr %68, align 8, !tbaa !31
  %70 = getelementptr inbounds nuw %struct.evp_pkey_asn1_method_st, ptr %69, i32 0, i32 9
  %71 = load ptr, ptr %70, align 8, !tbaa !34
  %72 = icmp ne ptr %71, null
  br i1 %72, label %80, label %73

73:                                               ; preds = %66
  %74 = load ptr, ptr %14, align 8, !tbaa !18
  %75 = getelementptr inbounds nuw %struct.evp_pkey_st, ptr %74, i32 0, i32 2
  %76 = load ptr, ptr %75, align 8, !tbaa !31
  %77 = getelementptr inbounds nuw %struct.evp_pkey_asn1_method_st, ptr %76, i32 0, i32 40
  %78 = load ptr, ptr %77, align 8, !tbaa !35
  %79 = icmp ne ptr %78, null
  br i1 %79, label %80, label %111

80:                                               ; preds = %73, %66
  call void @llvm.lifetime.start.p0(i64 8, ptr %17) #4
  call void @llvm.lifetime.start.p0(i64 8, ptr %18) #4
  store ptr null, ptr %18, align 8, !tbaa !36
  %81 = load i64, ptr %11, align 8, !tbaa !12
  %82 = call ptr @d2i_PKCS8_PRIV_KEY_INFO(ptr noundef null, ptr noundef %15, i64 noundef %81)
  store ptr %82, ptr %18, align 8, !tbaa !36
  %83 = load ptr, ptr %18, align 8, !tbaa !36
  %84 = icmp eq ptr %83, null
  br i1 %84, label %85, label %87

85:                                               ; preds = %80
  %86 = call i32 @ERR_clear_last_mark()
  store i32 2, ptr %16, align 4
  br label %108

87:                                               ; preds = %80
  %88 = load ptr, ptr %18, align 8, !tbaa !36
  %89 = load ptr, ptr %12, align 8, !tbaa !14
  %90 = load ptr, ptr %13, align 8, !tbaa !16
  %91 = call ptr @evp_pkcs82pkey_legacy(ptr noundef %88, ptr noundef %89, ptr noundef %90)
  store ptr %91, ptr %17, align 8, !tbaa !18
  %92 = load ptr, ptr %18, align 8, !tbaa !36
  call void @PKCS8_PRIV_KEY_INFO_free(ptr noundef %92)
  %93 = load ptr, ptr %17, align 8, !tbaa !18
  %94 = icmp eq ptr %93, null
  br i1 %94, label %95, label %97

95:                                               ; preds = %87
  %96 = call i32 @ERR_clear_last_mark()
  store i32 2, ptr %16, align 4
  br label %108

97:                                               ; preds = %87
  %98 = load ptr, ptr %14, align 8, !tbaa !18
  call void @EVP_PKEY_free(ptr noundef %98)
  %99 = load ptr, ptr %17, align 8, !tbaa !18
  store ptr %99, ptr %14, align 8, !tbaa !18
  %100 = call i32 @ERR_pop_to_mark()
  %101 = load i32, ptr %8, align 4, !tbaa !3
  %102 = call i32 @EVP_PKEY_type(i32 noundef %101)
  %103 = load ptr, ptr %14, align 8, !tbaa !18
  %104 = call i32 @EVP_PKEY_get_base_id(ptr noundef %103)
  %105 = icmp ne i32 %102, %104
  br i1 %105, label %106, label %107

106:                                              ; preds = %97
  store i32 2, ptr %16, align 4
  br label %108

107:                                              ; preds = %97
  store i32 0, ptr %16, align 4
  br label %108

108:                                              ; preds = %106, %95, %85, %107
  call void @llvm.lifetime.end.p0(i64 8, ptr %18) #4
  call void @llvm.lifetime.end.p0(i64 8, ptr %17) #4
  %109 = load i32, ptr %16, align 4
  switch i32 %109, label %137 [
    i32 0, label %110
    i32 2, label %126
  ]

110:                                              ; preds = %108
  br label %113

111:                                              ; preds = %73
  %112 = call i32 @ERR_clear_last_mark()
  call void @ERR_new()
  call void @ERR_set_debug(ptr noundef @.str, i32 noundef 151, ptr noundef @__func__.ossl_d2i_PrivateKey_legacy)
  call void (i32, i32, ptr, ...) @ERR_set_error(i32 noundef 13, i32 noundef 524301, ptr noundef null)
  br label %126

113:                                              ; preds = %110
  br label %116

114:                                              ; preds = %55
  %115 = call i32 @ERR_clear_last_mark()
  br label %116

116:                                              ; preds = %114, %113
  %117 = load ptr, ptr %15, align 8, !tbaa !16
  %118 = load ptr, ptr %10, align 8, !tbaa !10
  store ptr %117, ptr %118, align 8, !tbaa !16
  %119 = load ptr, ptr %9, align 8, !tbaa !7
  %120 = icmp ne ptr %119, null
  br i1 %120, label %121, label %124

121:                                              ; preds = %116
  %122 = load ptr, ptr %14, align 8, !tbaa !18
  %123 = load ptr, ptr %9, align 8, !tbaa !7
  store ptr %122, ptr %123, align 8, !tbaa !18
  br label %124

124:                                              ; preds = %121, %116
  %125 = load ptr, ptr %14, align 8, !tbaa !18
  store ptr %125, ptr %7, align 8
  store i32 1, ptr %16, align 4
  br label %137

126:                                              ; preds = %108, %111, %46
  %127 = load ptr, ptr %9, align 8, !tbaa !7
  %128 = icmp eq ptr %127, null
  br i1 %128, label %134, label %129

129:                                              ; preds = %126
  %130 = load ptr, ptr %9, align 8, !tbaa !7
  %131 = load ptr, ptr %130, align 8, !tbaa !18
  %132 = load ptr, ptr %14, align 8, !tbaa !18
  %133 = icmp ne ptr %131, %132
  br i1 %133, label %134, label %136

134:                                              ; preds = %129, %126
  %135 = load ptr, ptr %14, align 8, !tbaa !18
  call void @EVP_PKEY_free(ptr noundef %135)
  br label %136

136:                                              ; preds = %134, %129
  store ptr null, ptr %7, align 8
  store i32 1, ptr %16, align 4
  br label %137

137:                                              ; preds = %136, %124, %108, %30
  call void @llvm.lifetime.end.p0(i64 8, ptr %15) #4
  call void @llvm.lifetime.end.p0(i64 8, ptr %14) #4
  %138 = load ptr, ptr %7, align 8
  ret ptr %138
}