; Function Attrs: nounwind uwtable
define ptr @ossl_d2i_PrivateKey_legacy(i32 noundef %0, ptr noundef captures(address_is_null) %1, ptr noundef captures(none) %2, i64 noundef %3, ptr noundef %4, ptr noundef %5) local_unnamed_addr #0 {
  %7 = alloca ptr, align 8
  call void @llvm.lifetime.start.p0(i64 8, ptr nonnull %7) #3
  %8 = load ptr, ptr %2, align 8, !tbaa !3
  store ptr %8, ptr %7, align 8, !tbaa !3
  %9 = icmp eq ptr %1, null
  br i1 %9, label %13, label %10

10:                                               ; preds = %6
  %11 = load ptr, ptr %1, align 8, !tbaa !8
  %12 = icmp eq ptr %11, null
  br i1 %12, label %13, label %17

13:                                               ; preds = %10, %6
  %14 = tail call ptr @EVP_PKEY_new() #3
  %15 = icmp eq ptr %14, null
  br i1 %15, label %16, label %21

16:                                               ; preds = %13
  tail call void @ERR_new() #3
  tail call void @ERR_set_debug(ptr noundef nonnull @.str, i32 noundef 110, ptr noundef nonnull @__func__.ossl_d2i_PrivateKey_legacy) #3
  tail call void (i32, i32, ptr, ...) @ERR_set_error(i32 noundef 13, i32 noundef 524294, ptr noundef null) #3
  br label %64

17:                                               ; preds = %10
  %18 = getelementptr inbounds nuw i8, ptr %11, i64 16
  %19 = load ptr, ptr %18, align 8, !tbaa !10
  %20 = tail call i32 @ENGINE_finish(ptr noundef %19) #3
  store ptr null, ptr %18, align 8, !tbaa !10
  br label %21

21:                                               ; preds = %13, %17
  %.036 = phi ptr [ %14, %13 ], [ %11, %17 ]
  %22 = tail call i32 @EVP_PKEY_set_type(ptr noundef nonnull %.036, i32 noundef %0) #3
  %.not = icmp eq i32 %22, 0
  br i1 %.not, label %23, label %24

23:                                               ; preds = %21
  tail call void @ERR_new() #3
  tail call void @ERR_set_debug(ptr noundef nonnull @.str, i32 noundef 122, ptr noundef nonnull @__func__.ossl_d2i_PrivateKey_legacy) #3
  tail call void (i32, i32, ptr, ...) @ERR_set_error(i32 noundef 13, i32 noundef 163, ptr noundef null) #3
  br label %.thread

24:                                               ; preds = %21
  %25 = tail call i32 @ERR_set_mark() #3
  %26 = getelementptr inbounds nuw i8, ptr %.036, i64 8
  %27 = load ptr, ptr %26, align 8, !tbaa !24
  %28 = getelementptr inbounds nuw i8, ptr %27, i64 184
  %29 = load ptr, ptr %28, align 8, !tbaa !25
  %.not45 = icmp eq ptr %29, null
  br i1 %.not45, label %33, label %30

30:                                               ; preds = %24
  %31 = trunc i64 %3 to i32
  %32 = call i32 %29(ptr noundef nonnull %.036, ptr noundef nonnull %7, i32 noundef %31) #3
  %.not46 = icmp eq i32 %32, 0
  br i1 %.not46, label %._crit_edge, label %56

._crit_edge:                                      ; preds = %30
  %.pre = load ptr, ptr %26, align 8, !tbaa !24
  br label %33

33:                                               ; preds = %._crit_edge, %24
  %34 = phi ptr [ %.pre, %._crit_edge ], [ %27, %24 ]
  %35 = getelementptr inbounds nuw i8, ptr %34, i64 64
  %36 = load ptr, ptr %35, align 8, !tbaa !27
  %.not47 = icmp eq ptr %36, null
  br i1 %.not47, label %37, label %40

37:                                               ; preds = %33
  %38 = getelementptr inbounds nuw i8, ptr %34, i64 312
  %39 = load ptr, ptr %38, align 8, !tbaa !28
  %.not48 = icmp eq ptr %39, null
  br i1 %.not48, label %54, label %40

40:                                               ; preds = %37, %33
  %41 = call ptr @d2i_PKCS8_PRIV_KEY_INFO(ptr noundef null, ptr noundef nonnull %7, i64 noundef %3) #3
  %42 = icmp eq ptr %41, null
  br i1 %42, label %43, label %45

43:                                               ; preds = %40
  %44 = call i32 @ERR_clear_last_mark() #3
  br label %.thread

45:                                               ; preds = %40
  %46 = call ptr @evp_pkcs82pkey_legacy(ptr noundef nonnull %41, ptr noundef %4, ptr noundef %5) #3
  call void @PKCS8_PRIV_KEY_INFO_free(ptr noundef nonnull %41) #3
  %47 = icmp eq ptr %46, null
  br i1 %47, label %48, label %50

48:                                               ; preds = %45
  %49 = call i32 @ERR_clear_last_mark() #3
  br label %.thread

50:                                               ; preds = %45
  call void @EVP_PKEY_free(ptr noundef nonnull %.036) #3
  %51 = call i32 @ERR_pop_to_mark() #3
  %52 = call i32 @EVP_PKEY_type(i32 noundef %0) #3
  %53 = call i32 @EVP_PKEY_get_base_id(ptr noundef nonnull %46) #3
  %.not49 = icmp eq i32 %52, %53
  br i1 %.not49, label %58, label %.thread

54:                                               ; preds = %37
  %55 = call i32 @ERR_clear_last_mark() #3
  call void @ERR_new() #3
  call void @ERR_set_debug(ptr noundef nonnull @.str, i32 noundef 151, ptr noundef nonnull @__func__.ossl_d2i_PrivateKey_legacy) #3
  call void (i32, i32, ptr, ...) @ERR_set_error(i32 noundef 13, i32 noundef 524301, ptr noundef null) #3
  br label %.thread

56:                                               ; preds = %30
  %57 = call i32 @ERR_clear_last_mark() #3
  br label %58

58:                                               ; preds = %50, %56
  %.3 = phi ptr [ %.036, %56 ], [ %46, %50 ]
  %59 = load ptr, ptr %7, align 8, !tbaa !3
  store ptr %59, ptr %2, align 8, !tbaa !3
  br i1 %9, label %64, label %60

60:                                               ; preds = %58
  store ptr %.3, ptr %1, align 8, !tbaa !8
  br label %64

.thread:                                          ; preds = %50, %48, %43, %54, %23
  %.1 = phi ptr [ %.036, %54 ], [ %.036, %23 ], [ %46, %50 ], [ %.036, %48 ], [ %.036, %43 ]
  br i1 %9, label %63, label %61

61:                                               ; preds = %.thread
  %62 = load ptr, ptr %1, align 8, !tbaa !8
  %.not50 = icmp eq ptr %62, %.1
  br i1 %.not50, label %64, label %63

63:                                               ; preds = %61, %.thread
  call void @EVP_PKEY_free(ptr noundef nonnull %.1) #3
  br label %64

64:                                               ; preds = %61, %63, %58, %60, %16
  %.0 = phi ptr [ null, %16 ], [ %.3, %60 ], [ %.3, %58 ], [ null, %63 ], [ null, %61 ]
  call void @llvm.lifetime.end.p0(i64 8, ptr nonnull %7) #3
  ret ptr %.0
}